target datalayout = "e-m:e-p270:32:32-p271:32:32-p272:64:64-i64:64-i128:128-f80:128-n8:16:32:64-S128"
target triple = "x86_64-pc-linux-gnu"

@stdout = external global ptr, align 8

; Function Attrs: nounwind uwtable
define i32 @CORD_vprintf(ptr noundef %0, ptr noundef %1) #0 {
  %3 = alloca ptr, align 8
  %4 = alloca ptr, align 8
  %5 = alloca i32, align 4
  %6 = alloca ptr, align 8
  store ptr %0, ptr %3, align 8, !tbaa !8
  store ptr %1, ptr %4, align 8, !tbaa !10
  call void @llvm.lifetime.start.p0(i64 4, ptr %5) #9
  call void @llvm.lifetime.start.p0(i64 8, ptr %6) #9
  store ptr null, ptr %6, align 8, !tbaa !8
  %7 = load ptr, ptr %3, align 8, !tbaa !8
  %8 = load ptr, ptr %4, align 8, !tbaa !10
  %9 = call i32 @CORD_vsprintf(ptr noundef %6, ptr noundef %7, ptr noundef %8)
  store i32 %9, ptr %5, align 4, !tbaa !24
  %10 = load i32, ptr %5, align 4, !tbaa !24
  %11 = icmp sgt i32 %10, 0
  br i1 %11, label %12, label %16

12:                                               ; preds = %2
  %13 = load ptr, ptr %6, align 8, !tbaa !8
  %14 = load ptr, ptr @stdout, align 8, !tbaa !34
  %15 = call i32 @CORD_put(ptr noundef %13, ptr noundef %14)
  br label %16

16:                                               ; preds = %12, %2
  %17 = load i32, ptr %5, align 4, !tbaa !24
  call void @llvm.lifetime.end.p0(i64 8, ptr %6) #9
  call void @llvm.lifetime.end.p0(i64 4, ptr %5) #9
  ret i32 %17
}