; Function Attrs: nounwind uwtable
define i32 @CORD_vprintf(ptr noundef %0, ptr noundef %1) local_unnamed_addr #0 {
  %3 = alloca ptr, align 8
  call void @llvm.lifetime.start.p0(i64 8, ptr nonnull %3) #11
  store ptr null, ptr %3, align 8, !tbaa !31
  %4 = call i32 @CORD_vsprintf(ptr noundef nonnull %3, ptr noundef %0, ptr noundef %1)
  %5 = icmp sgt i32 %4, 0
  br i1 %5, label %6, label %10

6:                                                ; preds = %2
  %7 = load ptr, ptr %3, align 8, !tbaa !31
  %8 = load ptr, ptr @stdout, align 8, !tbaa !32
  %9 = tail call i32 @CORD_put(ptr noundef %7, ptr noundef %8) #11
  br label %10

10:                                               ; preds = %6, %2
  call void @llvm.lifetime.end.p0(i64 8, ptr nonnull %3) #11
  ret i32 %4
}